target datalayout = "e-m:e-p270:32:32-p271:32:32-p272:64:64-i64:64-i128:128-f80:128-n8:16:32:64-S128"
target triple = "x86_64-pc-linux-gnu"

%"class.llvm::StringRef" = type { ptr, i64 }

@.str.64 = private unnamed_addr constant [26 x i8] c"(invalid,invalid,invalid)\00", align 1
@.str.65 = private unnamed_addr constant [36 x i8] c"(construct,construct_target,target)\00", align 1
@.str.66 = private unnamed_addr constant [34 x i8] c"(construct,construct_teams,teams)\00", align 1
@.str.67 = private unnamed_addr constant [40 x i8] c"(construct,construct_parallel,parallel)\00", align 1
@.str.68 = private unnamed_addr constant [30 x i8] c"(construct,construct_for,for)\00", align 1
@.str.69 = private unnamed_addr constant [32 x i8] c"(construct,construct_simd,simd)\00", align 1
@.str.70 = private unnamed_addr constant [26 x i8] c"(device,device_kind,host)\00", align 1
@.str.71 = private unnamed_addr constant [28 x i8] c"(device,device_kind,nohost)\00", align 1
@.str.72 = private unnamed_addr constant [25 x i8] c"(device,device_kind,cpu)\00", align 1
@.str.73 = private unnamed_addr constant [25 x i8] c"(device,device_kind,gpu)\00", align 1
@.str.74 = private unnamed_addr constant [26 x i8] c"(device,device_kind,fpga)\00", align 1
@.str.75 = private unnamed_addr constant [25 x i8] c"(device,device_kind,any)\00", align 1
@.str.76 = private unnamed_addr constant [25 x i8] c"(device,device_arch,arm)\00", align 1
@.str.77 = private unnamed_addr constant [27 x i8] c"(device,device_arch,armeb)\00", align 1
@.str.78 = private unnamed_addr constant [29 x i8] c"(device,device_arch,aarch64)\00", align 1
@.str.79 = private unnamed_addr constant [32 x i8] c"(device,device_arch,aarch64_be)\00", align 1
@.str.80 = private unnamed_addr constant [32 x i8] c"(device,device_arch,aarch64_32)\00", align 1
@.str.81 = private unnamed_addr constant [25 x i8] c"(device,device_arch,ppc)\00", align 1
@.str.82 = private unnamed_addr constant [27 x i8] c"(device,device_arch,ppcle)\00", align 1
@.str.83 = private unnamed_addr constant [27 x i8] c"(device,device_arch,ppc64)\00", align 1
@.str.84 = private unnamed_addr constant [29 x i8] c"(device,device_arch,ppc64le)\00", align 1
@.str.85 = private unnamed_addr constant [25 x i8] c"(device,device_arch,x86)\00", align 1
@.str.86 = private unnamed_addr constant [28 x i8] c"(device,device_arch,x86_64)\00", align 1
@.str.87 = private unnamed_addr constant [28 x i8] c"(device,device_arch,amdgcn)\00", align 1
@.str.88 = private unnamed_addr constant [27 x i8] c"(device,device_arch,nvptx)\00", align 1
@.str.89 = private unnamed_addr constant [29 x i8] c"(device,device_arch,nvptx64)\00", align 1
@.str.90 = private unnamed_addr constant [43 x i8] c"(implementation,implementation_vendor,amd)\00", align 1
@.str.91 = private unnamed_addr constant [43 x i8] c"(implementation,implementation_vendor,arm)\00", align 1
@.str.92 = private unnamed_addr constant [43 x i8] c"(implementation,implementation_vendor,bsc)\00", align 1
@.str.93 = private unnamed_addr constant [44 x i8] c"(implementation,implementation_vendor,cray)\00", align 1
@.str.94 = private unnamed_addr constant [47 x i8] c"(implementation,implementation_vendor,fujitsu)\00", align 1
@.str.95 = private unnamed_addr constant [43 x i8] c"(implementation,implementation_vendor,gnu)\00", align 1
@.str.96 = private unnamed_addr constant [43 x i8] c"(implementation,implementation_vendor,ibm)\00", align 1
@.str.97 = private unnamed_addr constant [45 x i8] c"(implementation,implementation_vendor,intel)\00", align 1
@.str.98 = private unnamed_addr constant [44 x i8] c"(implementation,implementation_vendor,llvm)\00", align 1
@.str.99 = private unnamed_addr constant [43 x i8] c"(implementation,implementation_vendor,nec)\00", align 1
@.str.100 = private unnamed_addr constant [46 x i8] c"(implementation,implementation_vendor,nvidia)\00", align 1
@.str.101 = private unnamed_addr constant [43 x i8] c"(implementation,implementation_vendor,pgi)\00", align 1
@.str.102 = private unnamed_addr constant [42 x i8] c"(implementation,implementation_vendor,ti)\00", align 1
@.str.103 = private unnamed_addr constant [47 x i8] c"(implementation,implementation_vendor,unknown)\00", align 1
@.str.104 = private unnamed_addr constant [52 x i8] c"(implementation,implementation_extension,match_all)\00", align 1
@.str.105 = private unnamed_addr constant [52 x i8] c"(implementation,implementation_extension,match_any)\00", align 1
@.str.106 = private unnamed_addr constant [53 x i8] c"(implementation,implementation_extension,match_none)\00", align 1
@.str.107 = private unnamed_addr constant [64 x i8] c"(implementation,implementation_extension,disable_implicit_base)\00", align 1
@.str.108 = private unnamed_addr constant [58 x i8] c"(implementation,implementation_extension,allow_templates)\00", align 1
@.str.109 = private unnamed_addr constant [62 x i8] c"(implementation,implementation_extension,bind_to_declaration)\00", align 1
@.str.110 = private unnamed_addr constant [27 x i8] c"(user,user_condition,true)\00", align 1
@.str.111 = private unnamed_addr constant [28 x i8] c"(user,user_condition,false)\00", align 1
@.str.112 = private unnamed_addr constant [30 x i8] c"(user,user_condition,unknown)\00", align 1
@.str.113 = private unnamed_addr constant [40 x i8] c"(construct,construct_dispatch,dispatch)\00", align 1
@.str.114 = private unnamed_addr constant [53 x i8] c"(device,device_isa,<any, entirely target dependent>)\00", align 1
@.str.115 = private unnamed_addr constant [64 x i8] c"(implementation,implementation_unified_address,unified_address)\00", align 1
@.str.116 = private unnamed_addr constant [76 x i8] c"(implementation,implementation_unified_shared_memory,unified_shared_memory)\00", align 1
@.str.117 = private unnamed_addr constant [64 x i8] c"(implementation,implementation_reverse_offload,reverse_offload)\00", align 1
@.str.118 = private unnamed_addr constant [70 x i8] c"(implementation,implementation_dynamic_allocators,dynamic_allocators)\00", align 1
@.str.119 = private unnamed_addr constant [82 x i8] c"(implementation,implementation_atomic_default_mem_order,atomic_default_mem_order)\00", align 1

; Function Attrs: mustprogress nounwind uwtable
define linkonce_odr hidden noundef i64 @_ZNSt11char_traitsIcE6lengthEPKc(ptr noundef %0) #0 comdat align 2 {
  %2 = alloca ptr, align 8
  store ptr %0, ptr %2, align 8
  %3 = load ptr, ptr %2, align 8
  %4 = call i64 @strlen(ptr noundef %3) #9
  ret i64 %4
}

; Function Attrs: mustprogress nounwind uwtable
define linkonce_odr hidden void @_ZN4llvm9StringRefC2EPKc(ptr noundef nonnull align 8 dereferenceable(16) %0, ptr noundef %1) unnamed_addr #0 comdat align 2 {
  %3 = alloca ptr, align 8
  %4 = alloca ptr, align 8
  store ptr %0, ptr %3, align 8
  store ptr %1, ptr %4, align 8
  %5 = load ptr, ptr %3, align 8
  %6 = getelementptr inbounds nuw %"class.llvm::StringRef", ptr %5, i32 0, i32 0
  %7 = load ptr, ptr %4, align 8
  store ptr %7, ptr %6, align 8
  %8 = getelementptr inbounds nuw %"class.llvm::StringRef", ptr %5, i32 0, i32 1
  %9 = load ptr, ptr %4, align 8
  %10 = icmp ne ptr %9, null
  br i1 %10, label %11, label %14

11:                                               ; preds = %2
  %12 = load ptr, ptr %4, align 8
  %13 = call noundef i64 @_ZNSt11char_traitsIcE6lengthEPKc(ptr noundef %12)
  br label %15

14:                                               ; preds = %2
  br label %15

15:                                               ; preds = %14, %11
  %16 = phi i64 [ %13, %11 ], [ 0, %14 ]
  store i64 %16, ptr %8, align 8
  ret void
}

; Function Attrs: mustprogress nounwind uwtable
define dso_local { ptr, i64 } @_ZN4llvm3omp37getOpenMPContextTraitPropertyFullNameENS0_13TraitPropertyE(i32 noundef %0) #0 {
  %2 = alloca %"class.llvm::StringRef", align 8
  %3 = alloca i32, align 4
  store i32 %0, ptr %3, align 4
  %4 = load i32, ptr %3, align 4
  switch i32 %4, label %61 [
    i32 0, label %5
    i32 1, label %6
    i32 2, label %7
    i32 3, label %8
    i32 4, label %9
    i32 5, label %10
    i32 6, label %11
    i32 7, label %12
    i32 8, label %13
    i32 9, label %14
    i32 10, label %15
    i32 11, label %16
    i32 12, label %17
    i32 13, label %18
    i32 14, label %19
    i32 15, label %20
    i32 16, label %21
    i32 17, label %22
    i32 18, label %23
    i32 19, label %24
    i32 20, label %25
    i32 21, label %26
    i32 22, label %27
    i32 23, label %28
    i32 24, label %29
    i32 25, label %30
    i32 26, label %31
    i32 27, label %32
    i32 28, label %33
    i32 29, label %34
    i32 30, label %35
    i32 31, label %36
    i32 32, label %37
    i32 33, label %38
    i32 34, label %39
    i32 35, label %40
    i32 36, label %41
    i32 37, label %42
    i32 38, label %43
    i32 39, label %44
    i32 40, label %45
    i32 41, label %46
    i32 42, label %47
    i32 43, label %48
    i32 44, label %49
    i32 45, label %50
    i32 46, label %51
    i32 47, label %52
    i32 48, label %53
    i32 49, label %54
    i32 50, label %55
    i32 51, label %56
    i32 52, label %57
    i32 53, label %58
    i32 54, label %59
    i32 55, label %60
  ]

5:                                                ; preds = %1
  call void @_ZN4llvm9StringRefC2EPKc(ptr noundef nonnull align 8 dereferenceable(16) %2, ptr noundef @.str.64)
  br label %62

6:                                                ; preds = %1
  call void @_ZN4llvm9StringRefC2EPKc(ptr noundef nonnull align 8 dereferenceable(16) %2, ptr noundef @.str.65)
  br label %62

7:                                                ; preds = %1
  call void @_ZN4llvm9StringRefC2EPKc(ptr noundef nonnull align 8 dereferenceable(16) %2, ptr noundef @.str.66)
  br label %62

8:                                                ; preds = %1
  call void @_ZN4llvm9StringRefC2EPKc(ptr noundef nonnull align 8 dereferenceable(16) %2, ptr noundef @.str.67)
  br label %62

9:                                                ; preds = %1
  call void @_ZN4llvm9StringRefC2EPKc(ptr noundef nonnull align 8 dereferenceable(16) %2, ptr noundef @.str.68)
  br label %62

10:                                               ; preds = %1
  call void @_ZN4llvm9StringRefC2EPKc(ptr noundef nonnull align 8 dereferenceable(16) %2, ptr noundef @.str.69)
  br label %62

11:                                               ; preds = %1
  call void @_ZN4llvm9StringRefC2EPKc(ptr noundef nonnull align 8 dereferenceable(16) %2, ptr noundef @.str.70)
  br label %62

12:                                               ; preds = %1
  call void @_ZN4llvm9StringRefC2EPKc(ptr noundef nonnull align 8 dereferenceable(16) %2, ptr noundef @.str.71)
  br label %62

13:                                               ; preds = %1
  call void @_ZN4llvm9StringRefC2EPKc(ptr noundef nonnull align 8 dereferenceable(16) %2, ptr noundef @.str.72)
  br label %62

14:                                               ; preds = %1
  call void @_ZN4llvm9StringRefC2EPKc(ptr noundef nonnull align 8 dereferenceable(16) %2, ptr noundef @.str.73)
  br label %62

15:                                               ; preds = %1
  call void @_ZN4llvm9StringRefC2EPKc(ptr noundef nonnull align 8 dereferenceable(16) %2, ptr noundef @.str.74)
  br label %62

16:                                               ; preds = %1
  call void @_ZN4llvm9StringRefC2EPKc(ptr noundef nonnull align 8 dereferenceable(16) %2, ptr noundef @.str.75)
  br label %62

17:                                               ; preds = %1
  call void @_ZN4llvm9StringRefC2EPKc(ptr noundef nonnull align 8 dereferenceable(16) %2, ptr noundef @.str.76)
  br label %62

18:                                               ; preds = %1
  call void @_ZN4llvm9StringRefC2EPKc(ptr noundef nonnull align 8 dereferenceable(16) %2, ptr noundef @.str.77)
  br label %62

19:                                               ; preds = %1
  call void @_ZN4llvm9StringRefC2EPKc(ptr noundef nonnull align 8 dereferenceable(16) %2, ptr noundef @.str.78)
  br label %62

20:                                               ; preds = %1
  call void @_ZN4llvm9StringRefC2EPKc(ptr noundef nonnull align 8 dereferenceable(16) %2, ptr noundef @.str.79)
  br label %62

21:                                               ; preds = %1
  call void @_ZN4llvm9StringRefC2EPKc(ptr noundef nonnull align 8 dereferenceable(16) %2, ptr noundef @.str.80)
  br label %62

22:                                               ; preds = %1
  call void @_ZN4llvm9StringRefC2EPKc(ptr noundef nonnull align 8 dereferenceable(16) %2, ptr noundef @.str.81)
  br label %62

23:                                               ; preds = %1
  call void @_ZN4llvm9StringRefC2EPKc(ptr noundef nonnull align 8 dereferenceable(16) %2, ptr noundef @.str.82)
  br label %62

24:                                               ; preds = %1
  call void @_ZN4llvm9StringRefC2EPKc(ptr noundef nonnull align 8 dereferenceable(16) %2, ptr noundef @.str.83)
  br label %62

25:                                               ; preds = %1
  call void @_ZN4llvm9StringRefC2EPKc(ptr noundef nonnull align 8 dereferenceable(16) %2, ptr noundef @.str.84)
  br label %62

26:                                               ; preds = %1
  call void @_ZN4llvm9StringRefC2EPKc(ptr noundef nonnull align 8 dereferenceable(16) %2, ptr noundef @.str.85)
  br label %62

27:                                               ; preds = %1
  call void @_ZN4llvm9StringRefC2EPKc(ptr noundef nonnull align 8 dereferenceable(16) %2, ptr noundef @.str.86)
  br label %62

28:                                               ; preds = %1
  call void @_ZN4llvm9StringRefC2EPKc(ptr noundef nonnull align 8 dereferenceable(16) %2, ptr noundef @.str.87)
  br label %62

29:                                               ; preds = %1
  call void @_ZN4llvm9StringRefC2EPKc(ptr noundef nonnull align 8 dereferenceable(16) %2, ptr noundef @.str.88)
  br label %62

30:                                               ; preds = %1
  call void @_ZN4llvm9StringRefC2EPKc(ptr noundef nonnull align 8 dereferenceable(16) %2, ptr noundef @.str.89)
  br label %62

31:                                               ; preds = %1
  call void @_ZN4llvm9StringRefC2EPKc(ptr noundef nonnull align 8 dereferenceable(16) %2, ptr noundef @.str.90)
  br label %62

32:                                               ; preds = %1
  call void @_ZN4llvm9StringRefC2EPKc(ptr noundef nonnull align 8 dereferenceable(16) %2, ptr noundef @.str.91)
  br label %62

33:                                               ; preds = %1
  call void @_ZN4llvm9StringRefC2EPKc(ptr noundef nonnull align 8 dereferenceable(16) %2, ptr noundef @.str.92)
  br label %62

34:                                               ; preds = %1
  call void @_ZN4llvm9StringRefC2EPKc(ptr noundef nonnull align 8 dereferenceable(16) %2, ptr noundef @.str.93)
  br label %62

35:                                               ; preds = %1
  call void @_ZN4llvm9StringRefC2EPKc(ptr noundef nonnull align 8 dereferenceable(16) %2, ptr noundef @.str.94)
  br label %62

36:                                               ; preds = %1
  call void @_ZN4llvm9StringRefC2EPKc(ptr noundef nonnull align 8 dereferenceable(16) %2, ptr noundef @.str.95)
  br label %62

37:                                               ; preds = %1
  call void @_ZN4llvm9StringRefC2EPKc(ptr noundef nonnull align 8 dereferenceable(16) %2, ptr noundef @.str.96)
  br label %62

38:                                               ; preds = %1
  call void @_ZN4llvm9StringRefC2EPKc(ptr noundef nonnull align 8 dereferenceable(16) %2, ptr noundef @.str.97)
  br label %62

39:                                               ; preds = %1
  call void @_ZN4llvm9StringRefC2EPKc(ptr noundef nonnull align 8 dereferenceable(16) %2, ptr noundef @.str.98)
  br label %62

40:                                               ; preds = %1
  call void @_ZN4llvm9StringRefC2EPKc(ptr noundef nonnull align 8 dereferenceable(16) %2, ptr noundef @.str.99)
  br label %62

41:                                               ; preds = %1
  call void @_ZN4llvm9StringRefC2EPKc(ptr noundef nonnull align 8 dereferenceable(16) %2, ptr noundef @.str.100)
  br label %62

42:                                               ; preds = %1
  call void @_ZN4llvm9StringRefC2EPKc(ptr noundef nonnull align 8 dereferenceable(16) %2, ptr noundef @.str.101)
  br label %62

43:                                               ; preds = %1
  call void @_ZN4llvm9StringRefC2EPKc(ptr noundef nonnull align 8 dereferenceable(16) %2, ptr noundef @.str.102)
  br label %62

44:                                               ; preds = %1
  call void @_ZN4llvm9StringRefC2EPKc(ptr noundef nonnull align 8 dereferenceable(16) %2, ptr noundef @.str.103)
  br label %62

45:                                               ; preds = %1
  call void @_ZN4llvm9StringRefC2EPKc(ptr noundef nonnull align 8 dereferenceable(16) %2, ptr noundef @.str.104)
  br label %62

46:                                               ; preds = %1
  call void @_ZN4llvm9StringRefC2EPKc(ptr noundef nonnull align 8 dereferenceable(16) %2, ptr noundef @.str.105)
  br label %62

47:                                               ; preds = %1
  call void @_ZN4llvm9StringRefC2EPKc(ptr noundef nonnull align 8 dereferenceable(16) %2, ptr noundef @.str.106)
  br label %62

48:                                               ; preds = %1
  call void @_ZN4llvm9StringRefC2EPKc(ptr noundef nonnull align 8 dereferenceable(16) %2, ptr noundef @.str.107)
  br label %62

49:                                               ; preds = %1
  call void @_ZN4llvm9StringRefC2EPKc(ptr noundef nonnull align 8 dereferenceable(16) %2, ptr noundef @.str.108)
  br label %62

50:                                               ; preds = %1
  call void @_ZN4llvm9StringRefC2EPKc(ptr noundef nonnull align 8 dereferenceable(16) %2, ptr noundef @.str.109)
  br label %62

51:                                               ; preds = %1
  call void @_ZN4llvm9StringRefC2EPKc(ptr noundef nonnull align 8 dereferenceable(16) %2, ptr noundef @.str.110)
  br label %62

52:                                               ; preds = %1
  call void @_ZN4llvm9StringRefC2EPKc(ptr noundef nonnull align 8 dereferenceable(16) %2, ptr noundef @.str.111)
  br label %62

53:                                               ; preds = %1
  call void @_ZN4llvm9StringRefC2EPKc(ptr noundef nonnull align 8 dereferenceable(16) %2, ptr noundef @.str.112)
  br label %62

54:                                               ; preds = %1
  call void @_ZN4llvm9StringRefC2EPKc(ptr noundef nonnull align 8 dereferenceable(16) %2, ptr noundef @.str.113)
  br label %62

55:                                               ; preds = %1
  call void @_ZN4llvm9StringRefC2EPKc(ptr noundef nonnull align 8 dereferenceable(16) %2, ptr noundef @.str.114)
  br label %62

56:                                               ; preds = %1
  call void @_ZN4llvm9StringRefC2EPKc(ptr noundef nonnull align 8 dereferenceable(16) %2, ptr noundef @.str.115)
  br label %62

57:                                               ; preds = %1
  call void @_ZN4llvm9StringRefC2EPKc(ptr noundef nonnull align 8 dereferenceable(16) %2, ptr noundef @.str.116)
  br label %62

58:                                               ; preds = %1
  call void @_ZN4llvm9StringRefC2EPKc(ptr noundef nonnull align 8 dereferenceable(16) %2, ptr noundef @.str.117)
  br label %62

59:                                               ; preds = %1
  call void @_ZN4llvm9StringRefC2EPKc(ptr noundef nonnull align 8 dereferenceable(16) %2, ptr noundef @.str.118)
  br label %62

60:                                               ; preds = %1
  call void @_ZN4llvm9StringRefC2EPKc(ptr noundef nonnull align 8 dereferenceable(16) %2, ptr noundef @.str.119)
  br label %62

61:                                               ; preds = %1
  unreachable

62:                                               ; preds = %60, %59, %58, %57, %56, %55, %54, %53, %52, %51, %50, %49, %48, %47, %46, %45, %44, %43, %42, %41, %40, %39, %38, %37, %36, %35, %34, %33, %32, %31, %30, %29, %28, %27, %26, %25, %24, %23, %22, %21, %20, %19, %18, %17, %16, %15, %14, %13, %12, %11, %10, %9, %8, %7, %6, %5
  %63 = load { ptr, i64 }, ptr %2, align 8
  ret { ptr, i64 } %63
}